target datalayout = "e-m:e-p270:32:32-p271:32:32-p272:64:64-i64:64-i128:128-f80:128-n8:16:32:64-S128"
target triple = "x86_64-pc-linux-gnu"

@.str.86 = private unnamed_addr constant [8 x i8] c"unknown\00", align 1
@.str.87 = private unnamed_addr constant [5 x i8] c"none\00", align 1
@.str.88 = private unnamed_addr constant [6 x i8] c" per \00", align 1
@.str.89 = private unnamed_addr constant [17 x i8] c"angular_per_time\00", align 1
@.str.90 = private unnamed_addr constant [8 x i8] c"angular\00", align 1
@.str.91 = private unnamed_addr constant [16 x i8] c"linear_per_time\00", align 1
@.str.92 = private unnamed_addr constant [7 x i8] c"linear\00", align 1
@.str.93 = private unnamed_addr constant [10 x i8] c" per year\00", align 1
@.str.94 = private unnamed_addr constant [12 x i8] c" per second\00", align 1
@.str.95 = private unnamed_addr constant [15 x i8] c"scale_per_time\00", align 1
@.str.96 = private unnamed_addr constant [6 x i8] c"scale\00", align 1
@.str.97 = private unnamed_addr constant [5 x i8] c"time\00", align 1
@.str.98 = private unnamed_addr constant [20 x i8] c"parametric_per_time\00", align 1
@.str.99 = private unnamed_addr constant [11 x i8] c"parametric\00", align 1

; Function Attrs: mustprogress nounwind uwtable
define internal noundef ptr @_ZL17get_unit_categoryRKNSt7__cxx1112basic_stringIcSt11char_traitsIcESaIcEEEN5osgeo4proj6common13UnitOfMeasure4TypeE(ptr noundef nonnull align 8 dereferenceable(32) %0, i32 noundef %1) #0 {
  %3 = alloca ptr, align 8
  %4 = alloca i32, align 4
  %5 = alloca ptr, align 8
  store ptr %0, ptr %3, align 8
  store i32 %1, ptr %4, align 4
  store ptr null, ptr %5, align 8
  %6 = load i32, ptr %4, align 4
  switch i32 %6, label %36 [
    i32 0, label %7
    i32 1, label %8
    i32 2, label %9
    i32 3, label %14
    i32 4, label %19
    i32 5, label %30
    i32 6, label %31
  ]

7:                                                ; preds = %2
  store ptr @.str.86, ptr %5, align 8
  br label %36

8:                                                ; preds = %2
  store ptr @.str.87, ptr %5, align 8
  br label %36

9:                                                ; preds = %2
  %10 = load ptr, ptr %3, align 8
  %11 = call noundef i64 @_ZNKSt7__cxx1112basic_stringIcSt11char_traitsIcESaIcEE4findEPKcm(ptr noundef nonnull align 8 dereferenceable(32) %10, ptr noundef @.str.88, i64 noundef 0) #19
  %12 = icmp ne i64 %11, -1
  %13 = select i1 %12, ptr @.str.89, ptr @.str.90
  store ptr %13, ptr %5, align 8
  br label %36

14:                                               ; preds = %2
  %15 = load ptr, ptr %3, align 8
  %16 = call noundef i64 @_ZNKSt7__cxx1112basic_stringIcSt11char_traitsIcESaIcEE4findEPKcm(ptr noundef nonnull align 8 dereferenceable(32) %15, ptr noundef @.str.88, i64 noundef 0) #19
  %17 = icmp ne i64 %16, -1
  %18 = select i1 %17, ptr @.str.91, ptr @.str.92
  store ptr %18, ptr %5, align 8
  br label %36

19:                                               ; preds = %2
  %20 = load ptr, ptr %3, align 8
  %21 = call noundef i64 @_ZNKSt7__cxx1112basic_stringIcSt11char_traitsIcESaIcEE4findEPKcm(ptr noundef nonnull align 8 dereferenceable(32) %20, ptr noundef @.str.93, i64 noundef 0) #19
  %22 = icmp ne i64 %21, -1
  br i1 %22, label %27, label %23

23:                                               ; preds = %19
  %24 = load ptr, ptr %3, align 8
  %25 = call noundef i64 @_ZNKSt7__cxx1112basic_stringIcSt11char_traitsIcESaIcEE4findEPKcm(ptr noundef nonnull align 8 dereferenceable(32) %24, ptr noundef @.str.94, i64 noundef 0) #19
  %26 = icmp ne i64 %25, -1
  br label %27

27:                                               ; preds = %23, %19
  %28 = phi i1 [ true, %19 ], [ %26, %23 ]
  %29 = select i1 %28, ptr @.str.95, ptr @.str.96
  store ptr %29, ptr %5, align 8
  br label %36

30:                                               ; preds = %2
  store ptr @.str.97, ptr %5, align 8
  br label %36

31:                                               ; preds = %2
  %32 = load ptr, ptr %3, align 8
  %33 = call noundef i64 @_ZNKSt7__cxx1112basic_stringIcSt11char_traitsIcESaIcEE4findEPKcm(ptr noundef nonnull align 8 dereferenceable(32) %32, ptr noundef @.str.88, i64 noundef 0) #19
  %34 = icmp ne i64 %33, -1
  %35 = select i1 %34, ptr @.str.98, ptr @.str.99
  store ptr %35, ptr %5, align 8
  br label %36

36:                                               ; preds = %31, %30, %27, %14, %9, %8, %7, %2
  %37 = load ptr, ptr %5, align 8
  ret ptr %37
}