; Function Attrs: mustprogress nounwind uwtable
define internal fastcc noundef ptr @_ZL17get_unit_categoryRKNSt7__cxx1112basic_stringIcSt11char_traitsIcESaIcEEEN5osgeo4proj6common13UnitOfMeasure4TypeE(ptr noundef nonnull align 8 dereferenceable(32) %0, i32 noundef %1) unnamed_addr #0 {
  switch i32 %1, label %20 [
    i32 0, label %3
    i32 1, label %4
    i32 2, label %5
    i32 3, label %8
    i32 4, label %11
    i32 5, label %16
    i32 6, label %17
  ]

3:                                                ; preds = %2
  br label %20

4:                                                ; preds = %2
  br label %20

5:                                                ; preds = %2
  %6 = tail call noundef i64 @_ZNKSt7__cxx1112basic_stringIcSt11char_traitsIcESaIcEE4findEPKcm(ptr noundef nonnull align 8 dereferenceable(32) %0, ptr noundef nonnull @.str.88, i64 noundef 0) #27
  %.not9 = icmp eq i64 %6, -1
  %7 = select i1 %.not9, ptr @.str.90, ptr @.str.89
  br label %20

8:                                                ; preds = %2
  %9 = tail call noundef i64 @_ZNKSt7__cxx1112basic_stringIcSt11char_traitsIcESaIcEE4findEPKcm(ptr noundef nonnull align 8 dereferenceable(32) %0, ptr noundef nonnull @.str.88, i64 noundef 0) #27
  %.not8 = icmp eq i64 %9, -1
  %10 = select i1 %.not8, ptr @.str.92, ptr @.str.91
  br label %20

11:                                               ; preds = %2
  %12 = tail call noundef i64 @_ZNKSt7__cxx1112basic_stringIcSt11char_traitsIcESaIcEE4findEPKcm(ptr noundef nonnull align 8 dereferenceable(32) %0, ptr noundef nonnull @.str.93, i64 noundef 0) #27
  %.not6 = icmp eq i64 %12, -1
  br i1 %.not6, label %13, label %20

13:                                               ; preds = %11
  %14 = tail call noundef i64 @_ZNKSt7__cxx1112basic_stringIcSt11char_traitsIcESaIcEE4findEPKcm(ptr noundef nonnull align 8 dereferenceable(32) %0, ptr noundef nonnull @.str.94, i64 noundef 0) #27
  %.not7 = icmp eq i64 %14, -1
  %15 = select i1 %.not7, ptr @.str.96, ptr @.str.95
  br label %20

16:                                               ; preds = %2
  br label %20

17:                                               ; preds = %2
  %18 = tail call noundef i64 @_ZNKSt7__cxx1112basic_stringIcSt11char_traitsIcESaIcEE4findEPKcm(ptr noundef nonnull align 8 dereferenceable(32) %0, ptr noundef nonnull @.str.88, i64 noundef 0) #27
  %.not = icmp eq i64 %18, -1
  %19 = select i1 %.not, ptr @.str.99, ptr @.str.98
  br label %20

20:                                               ; preds = %11, %13, %17, %16, %8, %5, %4, %3, %2
  %.0 = phi ptr [ null, %2 ], [ %19, %17 ], [ @.str.97, %16 ], [ %10, %8 ], [ %7, %5 ], [ @.str.87, %4 ], [ @.str.86, %3 ], [ @.str.95, %11 ], [ %15, %13 ]
  ret ptr %.0
}